; Function Attrs: mustprogress nofree norecurse nounwind willreturn uwtable
define hidden void @_ZN23G1FullGCCompactionPoint17initialize_valuesEv(ptr nocapture noundef nonnull align 8 dereferenceable(56) %0) local_unnamed_addr #4 align 2 {
  %2 = load ptr, ptr %0, align 8
  %3 = getelementptr inbounds i8, ptr %0, i64 8
  %4 = load ptr, ptr %3, align 8
  %5 = getelementptr inbounds i8, ptr %2, i64 816
  %6 = load ptr, ptr %5, align 8
  %7 = getelementptr inbounds i8, ptr %4, i64 48
  %8 = load i32, ptr %7, align 8
  %9 = zext i32 %8 to i64
  %10 = getelementptr inbounds ptr, ptr %6, i64 %9
  %11 = load volatile ptr, ptr %10, align 8
  %12 = getelementptr inbounds i8, ptr %0, i64 16
  store ptr %11, ptr %12, align 8
  ret void
}